; ModuleID = '5/608.c'
source_filename = "5/608.c"
target datalayout = "e-m:e-p270:32:32-p271:32:32-p272:64:64-i64:64-f80:128-n8:16:32:64-S128"
target triple = "x86_64-pc-linux-gnu"

@.str = private unnamed_addr constant [4 x i8] c"%f\0A\00", align 1
@.str.1 = private unnamed_addr constant [3 x i8] c"%s\00", align 1
@.str.2 = private unnamed_addr constant [6 x i8] c"error\00", align 1
@.str.3 = private unnamed_addr constant [4 x i8] c"yes\00", align 1
@.str.4 = private unnamed_addr constant [3 x i8] c"no\00", align 1

; Function Attrs: noinline nounwind uwtable
define dso_local i32 @main() #0 {
  %1 = alloca i32, align 4
  %2 = alloca float, align 4
  %3 = alloca float, align 4
  %4 = alloca i32, align 4
  %5 = alloca i32, align 4
  %6 = alloca i32, align 4
  %7 = alloca i32, align 4
  %8 = alloca i32, align 4
  %9 = alloca [501 x i8], align 16
  %10 = alloca [501 x i8], align 16
  %11 = alloca i32, align 4
  %12 = alloca i32, align 4
  %13 = alloca i32, align 4
  store i32 0, i32* %1, align 4
  store i32 0, i32* %6, align 4
  store i32 0, i32* %7, align 4
  store i32 0, i32* %8, align 4
  %14 = bitcast [501 x i8]* %9 to i8*
  call void @llvm.memset.p0i8.i64(i8* align 16 %14, i8 0, i64 501, i1 false)
  %15 = bitcast [501 x i8]* %10 to i8*
  call void @llvm.memset.p0i8.i64(i8* align 16 %15, i8 0, i64 501, i1 false)
  %16 = call i32 (i8*, ...) @__isoc99_scanf(i8* getelementptr inbounds ([4 x i8], [4 x i8]* @.str, i64 0, i64 0), float* %2)
  %17 = getelementptr inbounds [501 x i8], [501 x i8]* %9, i64 0, i64 0
  %18 = call i32 (i8*, ...) @__isoc99_scanf(i8* getelementptr inbounds ([3 x i8], [3 x i8]* @.str.1, i64 0, i64 0), i8* %17)
  %19 = getelementptr inbounds [501 x i8], [501 x i8]* %10, i64 0, i64 0
  %20 = call i32 (i8*, ...) @__isoc99_scanf(i8* getelementptr inbounds ([3 x i8], [3 x i8]* @.str.1, i64 0, i64 0), i8* %19)
  %21 = getelementptr inbounds [501 x i8], [501 x i8]* %9, i64 0, i64 0
  %22 = call i64 @strlen(i8* %21) #4
  %23 = trunc i64 %22 to i32
  store i32 %23, i32* %4, align 4
  %24 = getelementptr inbounds [501 x i8], [501 x i8]* %10, i64 0, i64 0
  %25 = call i64 @strlen(i8* %24) #4
  %26 = trunc i64 %25 to i32
  store i32 %26, i32* %5, align 4
  store i32 0, i32* %11, align 4
  br label %27

27:                                               ; preds = %47, %0
  %28 = load i32, i32* %11, align 4
  %29 = load i32, i32* %4, align 4
  %30 = icmp slt i32 %28, %29
  br i1 %30, label %31, label %50

31:                                               ; preds = %27
  %32 = load i32, i32* %11, align 4
  %33 = sext i32 %32 to i64
  %34 = getelementptr inbounds [501 x i8], [501 x i8]* %9, i64 0, i64 %33
  %35 = load i8, i8* %34, align 1
  %36 = sext i8 %35 to i32
  %37 = icmp slt i32 %36, 65
  br i1 %37, label %45, label %38

38:                                               ; preds = %31
  %39 = load i32, i32* %11, align 4
  %40 = sext i32 %39 to i64
  %41 = getelementptr inbounds [501 x i8], [501 x i8]* %9, i64 0, i64 %40
  %42 = load i8, i8* %41, align 1
  %43 = sext i8 %42 to i32
  %44 = icmp sgt i32 %43, 90
  br i1 %44, label %45, label %46

45:                                               ; preds = %38, %31
  store i32 1, i32* %6, align 4
  br label %50

46:                                               ; preds = %38
  br label %47

47:                                               ; preds = %46
  %48 = load i32, i32* %11, align 4
  %49 = add nsw i32 %48, 1
  store i32 %49, i32* %11, align 4
  br label %27

50:                                               ; preds = %45, %27
  store i32 0, i32* %12, align 4
  br label %51

51:                                               ; preds = %71, %50
  %52 = load i32, i32* %12, align 4
  %53 = load i32, i32* %4, align 4
  %54 = icmp slt i32 %52, %53
  br i1 %54, label %55, label %74

55:                                               ; preds = %51
  %56 = load i32, i32* %12, align 4
  %57 = sext i32 %56 to i64
  %58 = getelementptr inbounds [501 x i8], [501 x i8]* %10, i64 0, i64 %57
  %59 = load i8, i8* %58, align 1
  %60 = sext i8 %59 to i32
  %61 = icmp slt i32 %60, 65
  br i1 %61, label %69, label %62

62:                                               ; preds = %55
  %63 = load i32, i32* %12, align 4
  %64 = sext i32 %63 to i64
  %65 = getelementptr inbounds [501 x i8], [501 x i8]* %10, i64 0, i64 %64
  %66 = load i8, i8* %65, align 1
  %67 = sext i8 %66 to i32
  %68 = icmp sgt i32 %67, 90
  br i1 %68, label %69, label %70

69:                                               ; preds = %62, %55
  store i32 1, i32* %7, align 4
  br label %74

70:                                               ; preds = %62
  br label %71

71:                                               ; preds = %70
  %72 = load i32, i32* %12, align 4
  %73 = add nsw i32 %72, 1
  store i32 %73, i32* %12, align 4
  br label %51

74:                                               ; preds = %69, %51
  %75 = load i32, i32* %6, align 4
  %76 = icmp eq i32 %75, 1
  br i1 %76, label %84, label %77

77:                                               ; preds = %74
  %78 = load i32, i32* %7, align 4
  %79 = icmp eq i32 %78, 1
  br i1 %79, label %84, label %80

80:                                               ; preds = %77
  %81 = load i32, i32* %4, align 4
  %82 = load i32, i32* %5, align 4
  %83 = icmp ne i32 %81, %82
  br i1 %83, label %84, label %86

84:                                               ; preds = %80, %77, %74
  %85 = call i32 (i8*, ...) @printf(i8* getelementptr inbounds ([6 x i8], [6 x i8]* @.str.2, i64 0, i64 0))
  br label %124

86:                                               ; preds = %80
  store i32 0, i32* %13, align 4
  br label %87

87:                                               ; preds = %107, %86
  %88 = load i32, i32* %13, align 4
  %89 = load i32, i32* %5, align 4
  %90 = icmp slt i32 %88, %89
  br i1 %90, label %91, label %110

91:                                               ; preds = %87
  %92 = load i32, i32* %13, align 4
  %93 = sext i32 %92 to i64
  %94 = getelementptr inbounds [501 x i8], [501 x i8]* %9, i64 0, i64 %93
  %95 = load i8, i8* %94, align 1
  %96 = sext i8 %95 to i32
  %97 = load i32, i32* %13, align 4
  %98 = sext i32 %97 to i64
  %99 = getelementptr inbounds [501 x i8], [501 x i8]* %10, i64 0, i64 %98
  %100 = load i8, i8* %99, align 1
  %101 = sext i8 %100 to i32
  %102 = icmp eq i32 %96, %101
  br i1 %102, label %103, label %106

103:                                              ; preds = %91
  %104 = load i32, i32* %8, align 4
  %105 = add nsw i32 %104, 1
  store i32 %105, i32* %8, align 4
  br label %106

106:                                              ; preds = %103, %91
  br label %107

107:                                              ; preds = %106
  %108 = load i32, i32* %13, align 4
  %109 = add nsw i32 %108, 1
  store i32 %109, i32* %13, align 4
  br label %87

110:                                              ; preds = %87
  %111 = load i32, i32* %8, align 4
  %112 = sitofp i32 %111 to float
  %113 = load i32, i32* %5, align 4
  %114 = sitofp i32 %113 to float
  %115 = fdiv float %112, %114
  store float %115, float* %3, align 4
  %116 = load float, float* %3, align 4
  %117 = load float, float* %2, align 4
  %118 = fcmp ogt float %116, %117
  br i1 %118, label %119, label %121

119:                                              ; preds = %110
  %120 = call i32 (i8*, ...) @printf(i8* getelementptr inbounds ([4 x i8], [4 x i8]* @.str.3, i64 0, i64 0))
  br label %123

121:                                              ; preds = %110
  %122 = call i32 (i8*, ...) @printf(i8* getelementptr inbounds ([3 x i8], [3 x i8]* @.str.4, i64 0, i64 0))
  br label %123

123:                                              ; preds = %121, %119
  br label %124

124:                                              ; preds = %123, %84
  ret i32 0
}

; Function Attrs: argmemonly nounwind willreturn
declare void @llvm.memset.p0i8.i64(i8* nocapture writeonly, i8, i64, i1 immarg) #1

declare dso_local i32 @__isoc99_scanf(i8*, ...) #2

; Function Attrs: nounwind readonly
declare dso_local i64 @strlen(i8*) #3

declare dso_local i32 @printf(i8*, ...) #2


!llvm.module.flags = !{!0}
!llvm.ident = !{!1}

!0 = !{i32 1, !"wchar_size", i32 4}
!1 = !{!"clang version 10.0.0-4ubuntu1 "}
